	.file	"initfini.c"
	.option nopic
	.attribute arch, "rv32i2p1_m2p0_a2p1_f2p2_d2p2_c2p0_zicsr2p0"
	.attribute unaligned_access, 0
	.attribute stack_align, 16
	.text
.Ltext0:
	.cfi_sections	.debug_frame
	.file 0 "/home/lc/git/rt-thread/bsp/gowin-riscv_ae350_soc" "ae350_soc/ae350/initfini.c"
	.section	.text._init,"ax",@progbits
	.align	1
	.globl	_init
	.type	_init, @function
_init:
.LFB0:
	.file 1 "ae350_soc/ae350/initfini.c"
	.loc 1 26 1
	.cfi_startproc
	addi	sp,sp,-16
	.cfi_def_cfa_offset 16
	sw	s0,12(sp)
	.cfi_offset 8, -4
	addi	s0,sp,16
	.cfi_def_cfa 8, 0
	.loc 1 27 1
	nop
	lw	s0,12(sp)
	.cfi_restore 8
	.cfi_def_cfa 2, 16
	addi	sp,sp,16
	.cfi_def_cfa_offset 0
	jr	ra
	.cfi_endproc
.LFE0:
	.size	_init, .-_init
	.section	.text._fini,"ax",@progbits
	.align	1
	.globl	_fini
	.type	_fini, @function
_fini:
.LFB1:
	.loc 1 30 1
	.cfi_startproc
	addi	sp,sp,-16
	.cfi_def_cfa_offset 16
	sw	s0,12(sp)
	.cfi_offset 8, -4
	addi	s0,sp,16
	.cfi_def_cfa 8, 0
	.loc 1 31 1
	nop
	lw	s0,12(sp)
	.cfi_restore 8
	.cfi_def_cfa 2, 16
	addi	sp,sp,16
	.cfi_def_cfa_offset 0
	jr	ra
	.cfi_endproc
.LFE1:
	.size	_fini, .-_fini
	.text
.Letext0: