	.file	"reset.c"
	.option nopic
	.attribute arch, "rv32i2p1_m2p0_a2p1_f2p2_d2p2_c2p0_zicsr2p0"
	.attribute unaligned_access, 0
	.attribute stack_align, 16
	.text
.Ltext0:
	.cfi_sections	.debug_frame
	.file 0 "/home/lc/git/rt-thread/bsp/gowin-riscv_ae350_soc" "ae350_soc/ae350/reset.c"
	.section	.text.reset_handler,"ax",@progbits
	.align	1
	.weak	reset_handler
	.type	reset_handler, @function
reset_handler:
.LFB0:
	.file 1 "ae350_soc/ae350/reset.c"
	.loc 1 28 1
	.cfi_startproc
	addi	sp,sp,-16
	.cfi_def_cfa_offset 16
	sw	ra,12(sp)
	sw	s0,8(sp)
	.cfi_offset 1, -4
	.cfi_offset 8, -8
	addi	s0,sp,16
	.cfi_def_cfa 8, 0
	.loc 1 39 2
	call	c_startup
	.loc 1 42 2
	call	system_init
	.loc 1 45 2
	call	__libc_init_array
	.loc 1 58 2
	call	entry
	.loc 1 60 1
	nop
	lw	ra,12(sp)
	.cfi_restore 1
	lw	s0,8(sp)
	.cfi_restore 8
	.cfi_def_cfa 2, 16
	addi	sp,sp,16
	.cfi_def_cfa_offset 0
	jr	ra
	.cfi_endproc
.LFE0:
	.size	reset_handler, .-reset_handler
	.section	.text.__cxa_atexit,"ax",@progbits
	.align	1
	.globl	__cxa_atexit
	.type	__cxa_atexit, @function
__cxa_atexit:
.LFB1:
	.loc 1 68 1
	.cfi_startproc
	addi	sp,sp,-32
	.cfi_def_cfa_offset 32
	sw	s0,28(sp)
	.cfi_offset 8, -4
	addi	s0,sp,32
	.cfi_def_cfa 8, 0
	sw	a0,-20(s0)
	sw	a1,-24(s0)
	sw	a2,-28(s0)
	.loc 1 69 1
	nop
	lw	s0,28(sp)
	.cfi_restore 8
	.cfi_def_cfa 2, 32
	addi	sp,sp,32
	.cfi_def_cfa_offset 0
	jr	ra
	.cfi_endproc
.LFE1:
	.size	__cxa_atexit, .-__cxa_atexit
	.weak	__dso_handle
	.section	.sdata.__dso_handle,"aw"
	.align	2
	.type	__dso_handle, @object
	.size	__dso_handle, 4
__dso_handle:
	.word	__dso_handle
	.text
.Letext0: