	.file	"delay.c"
	.option nopic
	.attribute arch, "rv32i2p1_m2p0_a2p1_f2p2_d2p2_c2p0_zicsr2p0"
	.attribute unaligned_access, 0
	.attribute stack_align, 16
	.text
.Ltext0:
	.cfi_sections	.debug_frame
	.file 0 "/home/lc/git/rt-thread/bsp/gowin-riscv_ae350_soc" "ae350_soc/lib/delay.c"
	.section	.text.get_core_freq,"ax",@progbits
	.align	1
	.type	get_core_freq, @function
get_core_freq:
.LFB15:
	.file 1 "ae350_soc/lib/delay.c"
	.loc 1 25 1
	.cfi_startproc
	addi	sp,sp,-16
	.cfi_def_cfa_offset 16
	sw	s0,12(sp)
	.cfi_offset 8, -4
	addi	s0,sp,16
	.cfi_def_cfa 8, 0
	.loc 1 26 9
	li	a5,800
	.loc 1 27 1
	mv	a0,a5
	lw	s0,12(sp)
	.cfi_restore 8
	.cfi_def_cfa 2, 16
	addi	sp,sp,16
	.cfi_def_cfa_offset 0
	jr	ra
	.cfi_endproc
.LFE15:
	.size	get_core_freq, .-get_core_freq
	.section	.text.rdmcycle,"ax",@progbits
	.align	1
	.type	rdmcycle, @function
rdmcycle:
.LFB16:
	.loc 1 30 1
	.cfi_startproc
	addi	sp,sp,-48
	.cfi_def_cfa_offset 48
	sw	s0,44(sp)
	.cfi_offset 8, -4
	addi	s0,sp,48
	.cfi_def_cfa 8, 0
.L6:
.LBB2:
.LBB3:
	.loc 1 34 46
 #APP
# 34 "ae350_soc/lib/delay.c" 1
	csrr t1, 0xb80
# 0 "" 2
 #NO_APP
	sw	t1,-20(s0)
	.loc 1 34 96
	lw	t1,-20(s0)
.LBE3:
	.loc 1 34 17
	sw	t1,-24(s0)
.LBB4:
	.loc 1 35 46
 #APP
# 35 "ae350_soc/lib/delay.c" 1
	csrr t1, 0xb00
# 0 "" 2
 #NO_APP
	sw	t1,-28(s0)
	.loc 1 35 96
	lw	t1,-28(s0)
.LBE4:
	.loc 1 35 17
	sw	t1,-32(s0)
.LBB5:
	.loc 1 37 37
 #APP
# 37 "ae350_soc/lib/delay.c" 1
	csrr t1, 0xb80
# 0 "" 2
 #NO_APP
	sw	t1,-36(s0)
	.loc 1 37 87
	lw	t3,-36(s0)
.LBE5:
	.loc 1 37 6
	lw	t1,-24(s0)
	bne	t3,t1,.L6
	.loc 1 39 12
	lw	t1,-24(s0)
	mv	a6,t1
	li	a7,0
	.loc 1 39 35
	slli	a5,a6,0
	li	a4,0
	.loc 1 39 42
	lw	a6,-32(s0)
	mv	a2,a6
	li	a3,0
	or	a0,a4,a2
	or	a1,a5,a3
	.loc 1 39 42 is_stmt 0 discriminator 1
	mv	a4,a0
	mv	a5,a1
.LBE2:
	.loc 1 45 1 is_stmt 1
	mv	a0,a4
	mv	a1,a5
	lw	s0,44(sp)
	.cfi_restore 8
	.cfi_def_cfa 2, 48
	addi	sp,sp,48
	.cfi_def_cfa_offset 0
	jr	ra
	.cfi_endproc
.LFE16:
	.size	rdmcycle, .-rdmcycle
	.section	.text.simple_delay_ms,"ax",@progbits
	.align	1
	.globl	simple_delay_ms
	.type	simple_delay_ms, @function
simple_delay_ms:
.LFB17:
	.loc 1 55 1
	.cfi_startproc
	addi	sp,sp,-32
	.cfi_def_cfa_offset 32
	sw	s0,28(sp)
	.cfi_offset 8, -4
	addi	s0,sp,32
	.cfi_def_cfa 8, 0
	sw	a0,-20(s0)
	.loc 1 56 14
	lw	a4,-20(s0)
	li	a5,4096
	addi	a5,a5,-1045
	mul	a5,a4,a5
	sw	a5,-20(s0)
	.loc 1 56 2
	j	.L9
.L10:
	.loc 1 56 70 discriminator 3
	lw	a5,-20(s0)
	addi	a5,a5,-1
	sw	a5,-20(s0)
.L9:
	.loc 1 56 56 discriminator 1
	lw	a5,-20(s0)
	bne	a5,zero,.L10
	.loc 1 57 1
	nop
	nop
	lw	s0,28(sp)
	.cfi_restore 8
	.cfi_def_cfa 2, 32
	addi	sp,sp,32
	.cfi_def_cfa_offset 0
	jr	ra
	.cfi_endproc
.LFE17:
	.size	simple_delay_ms, .-simple_delay_ms
	.text
.Letext0: